; Function Attrs: nounwind uwtable
define internal noundef i32 @_area_leave_notify_callback(ptr noundef %0, ptr readnone captures(none) %1, ptr noundef readonly captures(none) %2) #1 {
  %4 = getelementptr inbounds nuw i8, ptr %2, i64 704
  %5 = load ptr, ptr %4, align 16, !tbaa !6
  %6 = getelementptr inbounds nuw i8, ptr %5, i64 152
  store double -1.000000e+00, ptr %6, align 8, !tbaa !146
  %7 = getelementptr inbounds nuw i8, ptr %5, i64 144
  store double -1.000000e+00, ptr %7, align 8, !tbaa !147
  tail call void @gtk_widget_queue_draw(ptr noundef %0) #21
  ret i32 1
}